target datalayout = "e-m:e-p270:32:32-p271:32:32-p272:64:64-i64:64-i128:128-f80:128-n8:16:32:64-S128"
target triple = "x86_64-pc-linux-gnu"

%struct.Vec_Int_t_ = type { i32, i32, ptr }

@.str.13 = private unnamed_addr constant [5 x i8] c"F = \00", align 1
@.str.14 = private unnamed_addr constant [2 x i8] c"\0A\00", align 1

; Function Attrs: nounwind uwtable
define internal i32 @Vec_IntSize(ptr noundef %0) #0 {
  %2 = alloca ptr, align 8
  store ptr %0, ptr %2, align 8
  %3 = load ptr, ptr %2, align 8
  %4 = getelementptr inbounds %struct.Vec_Int_t_, ptr %3, i32 0, i32 1
  %5 = load i32, ptr %4, align 4
  ret i32 %5
}

; Function Attrs: nounwind uwtable
define void @Ivy_TruthDsdPrint(ptr noundef %0, ptr noundef %1) #0 {
  %3 = alloca ptr, align 8
  %4 = alloca ptr, align 8
  store ptr %0, ptr %3, align 8
  store ptr %1, ptr %4, align 8
  %5 = load ptr, ptr %3, align 8
  %6 = call i32 (ptr, ptr, ...) @fprintf(ptr noundef %5, ptr noundef @.str.13) #6
  %7 = load ptr, ptr %3, align 8
  %8 = load ptr, ptr %4, align 8
  %9 = call i32 @Vec_IntSize(ptr noundef %8)
  %10 = sub nsw i32 %9, 1
  %11 = load ptr, ptr %4, align 8
  call void @Ivy_TruthDsdPrint_rec(ptr noundef %7, i32 noundef %10, ptr noundef %11)
  %12 = load ptr, ptr %3, align 8
  %13 = call i32 (ptr, ptr, ...) @fprintf(ptr noundef %12, ptr noundef @.str.14) #6
  ret void
}