; Function Attrs: nofree nounwind uwtable
define void @Ivy_TruthDsdPrint(ptr noundef %0, ptr noundef %1) local_unnamed_addr #3 {
  %3 = tail call i64 @fwrite(ptr nonnull @.str.13, i64 4, i64 1, ptr %0)
  %4 = getelementptr i8, ptr %1, i64 4
  %.val = load i32, ptr %4, align 4
  %5 = add nsw i32 %.val, -1
  tail call void @Ivy_TruthDsdPrint_rec(ptr noundef %0, i32 noundef %5, ptr noundef %1)
  %fputc = tail call i32 @fputc(i32 10, ptr %0)
  ret void
}